target datalayout = "e-m:e-p270:32:32-p271:32:32-p272:64:64-i64:64-i128:128-f80:128-n8:16:32:64-S128"
target triple = "x86_64-pc-linux-gnu"

%struct.UCMapping = type { i32, %union.anon, i8, i8, i8, i8 }
%union.anon = type { i32 }
%struct.UCMStates = type { [128 x [256 x i32]], [128 x i32], [128 x i32], i32, i32, i32, i32, i8, i8 }

; Function Attrs: mustprogress uwtable
define i32 @ucm_mappingType(ptr noundef %0, ptr noundef %1, ptr noundef %2, ptr noundef %3) #0 {
  %5 = alloca i32, align 4
  %6 = alloca ptr, align 8
  %7 = alloca ptr, align 8
  %8 = alloca ptr, align 8
  %9 = alloca ptr, align 8
  %10 = alloca i32, align 4
  %11 = alloca i32, align 4
  store ptr %0, ptr %6, align 8, !tbaa !50
  store ptr %1, ptr %7, align 8, !tbaa !8
  store ptr %2, ptr %8, align 8, !tbaa !23
  store ptr %3, ptr %9, align 8, !tbaa !24
  call void @llvm.lifetime.start.p0(i64 4, ptr %10) #12
  %12 = load ptr, ptr %6, align 8, !tbaa !50
  %13 = load ptr, ptr %9, align 8, !tbaa !24
  %14 = load ptr, ptr %7, align 8, !tbaa !8
  %15 = getelementptr inbounds nuw %struct.UCMapping, ptr %14, i32 0, i32 3
  %16 = load i8, ptr %15, align 1, !tbaa !20
  %17 = sext i8 %16 to i32
  %18 = call i32 @ucm_countChars(ptr noundef %12, ptr noundef %13, i32 noundef %17)
  store i32 %18, ptr %10, align 4, !tbaa !25
  %19 = load i32, ptr %10, align 4, !tbaa !25
  %20 = icmp slt i32 %19, 1
  br i1 %20, label %21, label %22

21:                                               ; preds = %4
  store i32 -1, ptr %5, align 4
  store i32 1, ptr %11, align 4
  br label %86

22:                                               ; preds = %4
  %23 = load ptr, ptr %7, align 8, !tbaa !8
  %24 = getelementptr inbounds nuw %struct.UCMapping, ptr %23, i32 0, i32 2
  %25 = load i8, ptr %24, align 4, !tbaa !12
  %26 = sext i8 %25 to i32
  %27 = icmp eq i32 %26, 1
  br i1 %27, label %28, label %85

28:                                               ; preds = %22
  %29 = load i32, ptr %10, align 4, !tbaa !25
  %30 = icmp eq i32 %29, 1
  br i1 %30, label %31, label %85

31:                                               ; preds = %28
  %32 = load ptr, ptr %7, align 8, !tbaa !8
  %33 = getelementptr inbounds nuw %struct.UCMapping, ptr %32, i32 0, i32 4
  %34 = load i8, ptr %33, align 2, !tbaa !29
  %35 = sext i8 %34 to i32
  %36 = icmp sle i32 %35, 3
  br i1 %36, label %37, label %85

37:                                               ; preds = %31
  %38 = load ptr, ptr %6, align 8, !tbaa !50
  %39 = getelementptr inbounds nuw %struct.UCMStates, ptr %38, i32 0, i32 5
  %40 = load i32, ptr %39, align 4, !tbaa !70
  %41 = icmp eq i32 %40, 1
  br i1 %41, label %84, label %42

42:                                               ; preds = %37
  %43 = load ptr, ptr %7, align 8, !tbaa !8
  %44 = getelementptr inbounds nuw %struct.UCMapping, ptr %43, i32 0, i32 4
  %45 = load i8, ptr %44, align 2, !tbaa !29
  %46 = sext i8 %45 to i32
  %47 = icmp eq i32 %46, 2
  br i1 %47, label %48, label %54

48:                                               ; preds = %42
  %49 = load ptr, ptr %7, align 8, !tbaa !8
  %50 = getelementptr inbounds nuw %struct.UCMapping, ptr %49, i32 0, i32 3
  %51 = load i8, ptr %50, align 1, !tbaa !20
  %52 = sext i8 %51 to i32
  %53 = icmp eq i32 %52, 1
  br i1 %53, label %85, label %54

54:                                               ; preds = %48, %42
  %55 = load ptr, ptr %7, align 8, !tbaa !8
  %56 = getelementptr inbounds nuw %struct.UCMapping, ptr %55, i32 0, i32 4
  %57 = load i8, ptr %56, align 2, !tbaa !29
  %58 = sext i8 %57 to i32
  %59 = icmp eq i32 %58, 1
  br i1 %59, label %60, label %66

60:                                               ; preds = %54
  %61 = load ptr, ptr %9, align 8, !tbaa !24
  %62 = getelementptr inbounds i8, ptr %61, i64 0
  %63 = load i8, ptr %62, align 1, !tbaa !22
  %64 = zext i8 %63 to i32
  %65 = icmp eq i32 %64, 0
  br i1 %65, label %85, label %66

66:                                               ; preds = %60, %54
  %67 = load ptr, ptr %7, align 8, !tbaa !8
  %68 = getelementptr inbounds nuw %struct.UCMapping, ptr %67, i32 0, i32 4
  %69 = load i8, ptr %68, align 2, !tbaa !29
  %70 = sext i8 %69 to i32
  %71 = icmp sle i32 %70, 1
  br i1 %71, label %72, label %84

72:                                               ; preds = %66
  %73 = load ptr, ptr %7, align 8, !tbaa !8
  %74 = getelementptr inbounds nuw %struct.UCMapping, ptr %73, i32 0, i32 3
  %75 = load i8, ptr %74, align 1, !tbaa !20
  %76 = sext i8 %75 to i32
  %77 = icmp sgt i32 %76, 1
  br i1 %77, label %78, label %84

78:                                               ; preds = %72
  %79 = load ptr, ptr %9, align 8, !tbaa !24
  %80 = getelementptr inbounds i8, ptr %79, i64 0
  %81 = load i8, ptr %80, align 1, !tbaa !22
  %82 = zext i8 %81 to i32
  %83 = icmp eq i32 %82, 0
  br i1 %83, label %85, label %84

84:                                               ; preds = %78, %72, %66, %37
  store i32 0, ptr %5, align 4
  store i32 1, ptr %11, align 4
  br label %86

85:                                               ; preds = %78, %60, %48, %31, %28, %22
  store i32 1, ptr %5, align 4
  store i32 1, ptr %11, align 4
  br label %86

86:                                               ; preds = %85, %84, %21
  call void @llvm.lifetime.end.p0(i64 4, ptr %10) #12
  %87 = load i32, ptr %5, align 4
  ret i32 %87
}