; Function Attrs: mustprogress uwtable
define range(i32 -1, 2) i32 @ucm_mappingType(ptr noundef %0, ptr noundef readonly captures(none) %1, ptr noundef readnone captures(none) %2, ptr noundef %3) local_unnamed_addr #2 {
  %5 = getelementptr inbounds nuw i8, ptr %1, i64 9
  %6 = load i8, ptr %5, align 1, !tbaa !15
  %7 = sext i8 %6 to i32
  %8 = tail call i32 @ucm_countChars(ptr noundef %0, ptr noundef %3, i32 noundef %7)
  %9 = icmp slt i32 %8, 1
  br i1 %9, label %.thread19, label %10

10:                                               ; preds = %4
  %11 = getelementptr inbounds nuw i8, ptr %1, i64 8
  %12 = load i8, ptr %11, align 4, !tbaa !3
  %13 = icmp eq i8 %12, 1
  %14 = icmp eq i32 %8, 1
  %or.cond = and i1 %14, %13
  br i1 %or.cond, label %15, label %37

15:                                               ; preds = %10
  %16 = getelementptr inbounds nuw i8, ptr %1, i64 10
  %17 = load i8, ptr %16, align 2, !tbaa !22
  %18 = icmp slt i8 %17, 4
  br i1 %18, label %19, label %37

19:                                               ; preds = %15
  %20 = getelementptr inbounds nuw i8, ptr %0, i64 132104
  %21 = load i32, ptr %20, align 4, !tbaa !61
  %22 = icmp eq i32 %21, 1
  br i1 %22, label %.thread19, label %23

23:                                               ; preds = %19
  switch i8 %17, label %30 [
    i8 2, label %24
    i8 1, label %27
  ]

24:                                               ; preds = %23
  %25 = load i8, ptr %5, align 1, !tbaa !15
  %26 = icmp eq i8 %25, 1
  br i1 %26, label %37, label %.thread19

27:                                               ; preds = %23
  %28 = load i8, ptr %3, align 1, !tbaa !17
  %29 = icmp eq i8 %28, 0
  br i1 %29, label %37, label %.thread18

30:                                               ; preds = %23
  %31 = icmp slt i8 %17, 2
  br i1 %31, label %.thread18, label %.thread19

.thread18:                                        ; preds = %27, %30
  %32 = load i8, ptr %5, align 1, !tbaa !15
  %33 = icmp sgt i8 %32, 1
  br i1 %33, label %34, label %.thread19

34:                                               ; preds = %.thread18
  %35 = load i8, ptr %3, align 1, !tbaa !17
  %36 = icmp eq i8 %35, 0
  br i1 %36, label %37, label %.thread19

37:                                               ; preds = %34, %27, %24, %15, %10
  br label %.thread19

.thread19:                                        ; preds = %24, %19, %30, %.thread18, %34, %4, %37
  %.0 = phi i32 [ 1, %37 ], [ -1, %4 ], [ 0, %34 ], [ 0, %.thread18 ], [ 0, %30 ], [ 0, %19 ], [ 0, %24 ]
  ret i32 %.0
}